; Function Attrs: mustprogress uwtable
define void @_ZN17PreferencesDialog7setPaneE7QString(ptr nocapture noundef nonnull readonly align 8 dereferenceable(248) %0, ptr nocapture noundef readonly %1) local_unnamed_addr #0 align 2 personality ptr @__gxx_personality_v0 {
  %3 = alloca %class.QString, align 8
  %4 = getelementptr inbounds i8, ptr %0, i64 64
  %5 = load ptr, ptr %4, align 8
  %6 = getelementptr inbounds i8, ptr %5, i64 16
  %7 = load ptr, ptr %6, align 8
  %8 = load ptr, ptr %1, align 8
  store ptr %8, ptr %3, align 8
  %9 = getelementptr inbounds i8, ptr %3, i64 8
  %10 = getelementptr inbounds i8, ptr %1, i64 8
  %11 = load ptr, ptr %10, align 8
  store ptr %11, ptr %9, align 8
  %12 = getelementptr inbounds i8, ptr %3, i64 16
  %13 = getelementptr inbounds i8, ptr %1, i64 16
  %14 = load i64, ptr %13, align 8
  store i64 %14, ptr %12, align 8
  %.not.i.i.i = icmp eq ptr %8, null
  br i1 %.not.i.i.i, label %_ZN7QStringC2ERKS_.exit, label %15

15:                                               ; preds = %2
  %16 = atomicrmw add ptr %8, i32 1 seq_cst, align 4
  br label %_ZN7QStringC2ERKS_.exit

_ZN7QStringC2ERKS_.exit:                          ; preds = %2, %15
  invoke void @_ZN18PrefModuleTreeView7setPaneE7QString(ptr noundef nonnull align 8 dereferenceable(64) %7, ptr noundef nonnull %3)
          to label %17 unwind label %22

17:                                               ; preds = %_ZN7QStringC2ERKS_.exit
  %18 = load ptr, ptr %3, align 8
  %.not.i.i.i2 = icmp eq ptr %18, null
  br i1 %.not.i.i.i2, label %_ZN7QStringD2Ev.exit, label %_ZN17QArrayDataPointerIDsE5derefEv.exit.i.i

_ZN17QArrayDataPointerIDsE5derefEv.exit.i.i:      ; preds = %17
  %19 = atomicrmw sub ptr %18, i32 1 seq_cst, align 4
  %.not.i.i = icmp eq i32 %19, 1
  br i1 %.not.i.i, label %20, label %_ZN7QStringD2Ev.exit

20:                                               ; preds = %_ZN17QArrayDataPointerIDsE5derefEv.exit.i.i
  %21 = load ptr, ptr %3, align 8
  call void @_ZN10QArrayData10deallocateEPS_xx(ptr noundef %21, i64 noundef 2, i64 noundef 8) #18
  br label %_ZN7QStringD2Ev.exit

_ZN7QStringD2Ev.exit:                             ; preds = %17, %_ZN17QArrayDataPointerIDsE5derefEv.exit.i.i, %20
  ret void

22:                                               ; preds = %_ZN7QStringC2ERKS_.exit
  %23 = landingpad { ptr, i32 }
          cleanup
  %24 = load ptr, ptr %3, align 8
  %.not.i.i.i3 = icmp eq ptr %24, null
  br i1 %.not.i.i.i3, label %_ZN7QStringD2Ev.exit6, label %_ZN17QArrayDataPointerIDsE5derefEv.exit.i.i4

_ZN17QArrayDataPointerIDsE5derefEv.exit.i.i4:     ; preds = %22
  %25 = atomicrmw sub ptr %24, i32 1 seq_cst, align 4
  %.not.i.i5 = icmp eq i32 %25, 1
  br i1 %.not.i.i5, label %26, label %_ZN7QStringD2Ev.exit6

26:                                               ; preds = %_ZN17QArrayDataPointerIDsE5derefEv.exit.i.i4
  %27 = load ptr, ptr %3, align 8
  call void @_ZN10QArrayData10deallocateEPS_xx(ptr noundef %27, i64 noundef 2, i64 noundef 8) #18
  br label %_ZN7QStringD2Ev.exit6

_ZN7QStringD2Ev.exit6:                            ; preds = %22, %_ZN17QArrayDataPointerIDsE5derefEv.exit.i.i4, %26
  resume { ptr, i32 } %23
}